ccopy_reg
_reconstructor
p0
(cFWCore.ParameterSet.Config
Process
p1
c__builtin__
object
p2
Ntp3
Rp4
(dp5
S'_Process__sequences'
p6
(dp7
sS'_Process__services'
p8
(dp9
sS'_Process__source'
p10
g0
(cFWCore.ParameterSet.Modules
Source
p11
g2
Ntp12
Rp13
(dp14
S'_Parameterizable__parameterNames'
p15
(lp16
S'fileNames'
p17
asS'_isFrozen'
p18
I00
sS'_isModified'
p19
I00
sS'_lineNumber'
p20
I175
sS'_filename'
p21
S'/cvmfs/cms.cern.ch/slc6_amd64_gcc530/cms/cmssw-patch/CMSSW_8_0_13_patch1/python/FWCore/ParameterSet/Modules.py'
p22
sg17
g0
(cFWCore.ParameterSet.Types
vstring
p23
c__builtin__
list
p24
(lp25
S'root://cms-xrd-global.cern.ch///store/mc/HC/GenericTTbar/GEN-SIM-RECO/CMSSW_5_3_1_START53_V5-v1/0010/00CE4E7C-DAAD-E111-BA36-0025B32034EA.root'
p26
atp27
Rp28
(dp29
g18
I00
sS'_ParameterTypeBase__isTracked'
p30
I00
sg19
I00
sS'_nPerLine'
p31
I1
sbsS'_TypedParameterizable__type'
p32
S'PoolSource'
p33
sbsS'_Process__aliases'
p34
(dp35
sS'out'
p36
g0
(cFWCore.ParameterSet.SequenceTypes
EndPath
p37
g2
Ntp38
Rp39
(dp40
g18
I00
sS'_seq'
p41
g0
(cFWCore.ParameterSet.SequenceTypes
_SequenceCollection
p42
g2
Ntp43
Rp44
(dp45
S'_collection'
p46
(lp47
g0
(cFWCore.ParameterSet.Modules
OutputModule
p48
g2
Ntp49
Rp50
(dp51
g15
(lp52
S'outputCommands'
p53
aS'fileName'
p54
asg18
I00
sg19
I00
sg53
g0
(g23
g24
(lp55
S'drop *'
p56
aS'keep recoTracks_*_*_*'
p57
atp58
Rp59
(dp60
g18
I00
sg30
I00
sg19
I00
sg31
I1
sbsg21
S'/afs/cern.ch/user/c/ciperez/OWNAnalyzer/CMSSW_8_0_13_patch1/src/triphoton/CRAB3-tutorial/pset_tutorial_analysis.py'
p61
sg54
g0
(cFWCore.ParameterSet.Types
string
p62
g2
Ntp63
Rp64
(dp65
g18
I00
sg30
I00
sS'_value'
p66
S'output.root'
p67
sg19
I00
sbsg20
I11
sS'_Labelable__label'
p68
S'output'
p69
sg32
S'PoolOutputModule'
p70
sbasbsg19
I00
sg68
g36
sbsS'_Process__psets'
p71
(dp72
S'maxEvents'
p73
g0
(cFWCore.ParameterSet.Types
PSet
p74
g2
Ntp75
Rp76
(dp77
g18
I00
sg30
I00
sg19
I00
sg15
(lp78
S'input'
p79
asg68
g73
sg79
g0
(cFWCore.ParameterSet.Types
int32
p80
g2
Ntp81
Rp82
(dp83
g18
I00
sg30
I00
sg66
I10
sg19
I00
sbsbsS'options'
p84
g0
(g74
g2
Ntp85
Rp86
(dp87
g18
I00
sg30
I00
sg19
I00
sS'wantSummary'
p88
g0
(cFWCore.ParameterSet.Types
bool
p89
g2
Ntp90
Rp91
(dp92
g18
I00
sg30
I00
sg66
I01
sg19
I00
sbsg15
(lp93
g88
asg68
g84
sbssS'_Process__essources'
p94
(dp95
sg33
g13
sg73
g76
sS'source'
p96
g13
sS'_Process__vpsets'
p97
(dp98
sS'_Process__name'
p99
S'NoSplit'
p100
sS'_Process__subProcesses'
p101
(lp102
sS'_cloneToObjectDict'
p103
(dp104
I140379162564624
g76
sI140379162564944
g86
sI140379162021776
g39
sI140379162564560
g50
ssS'_Process__esprefers'
p105
(dp106
sS'_Process__schedule'
p107
Nsg69
g50
sS'_Process__outputmodules'
p108
(dp109
g69
g50
ssS'_Process__analyzers'
p110
(dp111
sS'_Process__InExtendCall'
p112
I00
sS'_Process__modifiers'
p113
(tsS'_Process__producers'
p114
(dp115
sS'_Process__filters'
p116
(dp117
sS'_Process__looper'
p118
NsS'_Process__endpaths'
p119
g0
(cFWCore.ParameterSet.DictTypes
SortedKeysDict
p120
c__builtin__
dict
p121
(dp122
g36
g39
stp123
Rp124
(dp125
S'list'
p126
(lp127
g36
asbsS'_Process__esproducers'
p128
(dp129
sS'_Process__paths'
p130
g0
(g120
g121
(dp131
tp132
Rp133
(dp134
g126
(lp135
sbsS'_Process__partialschedules'
p136
(dp137
sg84
g86
sS'_Process__isStrict'
p138
I00
sb.